target datalayout = "e-m:e-p270:32:32-p271:32:32-p272:64:64-i64:64-i128:128-f80:128-n8:16:32:64-S128"
target triple = "x86_64-pc-linux-gnu"

%struct.Ndr_Data_t_ = type { i32, i32, ptr, ptr }

; Function Attrs: inlinehint nounwind uwtable
define internal void @Ndr_Delete(ptr noundef %0) #2 {
  %2 = alloca ptr, align 8
  %3 = alloca ptr, align 8
  %4 = alloca i32, align 4
  store ptr %0, ptr %2, align 8, !tbaa !8
  call void @llvm.lifetime.start.p0(i64 8, ptr %3) #11
  %5 = load ptr, ptr %2, align 8, !tbaa !8
  store ptr %5, ptr %3, align 8, !tbaa !18
  %6 = load ptr, ptr %3, align 8, !tbaa !18
  %7 = icmp ne ptr %6, null
  br i1 %7, label %9, label %8

8:                                                ; preds = %1
  store i32 1, ptr %4, align 4
  br label %17

9:                                                ; preds = %1
  %10 = load ptr, ptr %3, align 8, !tbaa !18
  %11 = getelementptr inbounds nuw %struct.Ndr_Data_t_, ptr %10, i32 0, i32 2
  %12 = load ptr, ptr %11, align 8, !tbaa !25
  call void @free(ptr noundef %12) #11
  %13 = load ptr, ptr %3, align 8, !tbaa !18
  %14 = getelementptr inbounds nuw %struct.Ndr_Data_t_, ptr %13, i32 0, i32 3
  %15 = load ptr, ptr %14, align 8, !tbaa !26
  call void @free(ptr noundef %15) #11
  %16 = load ptr, ptr %3, align 8, !tbaa !18
  call void @free(ptr noundef %16) #11
  store i32 0, ptr %4, align 4
  br label %17

17:                                               ; preds = %9, %8
  call void @llvm.lifetime.end.p0(i64 8, ptr %3) #11
  %18 = load i32, ptr %4, align 4
  switch i32 %18, label %20 [
    i32 0, label %19
    i32 1, label %19
  ]

19:                                               ; preds = %17, %17
  ret void

20:                                               ; preds = %17
  unreachable
}

; Function Attrs: nounwind uwtable
define ptr @Wln_ReadNdr(ptr noundef %0) #0 {
  %2 = alloca ptr, align 8
  %3 = alloca ptr, align 8
  %4 = alloca ptr, align 8
  %5 = alloca ptr, align 8
  %6 = alloca i32, align 4
  store ptr %0, ptr %3, align 8, !tbaa !28
  call void @llvm.lifetime.start.p0(i64 8, ptr %4) #11
  %7 = load ptr, ptr %3, align 8, !tbaa !28
  %8 = call ptr @Ndr_Read(ptr noundef %7)
  store ptr %8, ptr %4, align 8, !tbaa !8
  call void @llvm.lifetime.start.p0(i64 8, ptr %5) #11
  %9 = load ptr, ptr %4, align 8, !tbaa !8
  %10 = icmp ne ptr %9, null
  br i1 %10, label %11, label %14

11:                                               ; preds = %1
  %12 = load ptr, ptr %4, align 8, !tbaa !8
  %13 = call ptr @Wln_NtkFromNdr(ptr noundef %12, i32 noundef 0)
  br label %15

14:                                               ; preds = %1
  br label %15

15:                                               ; preds = %14, %11
  %16 = phi ptr [ %13, %11 ], [ null, %14 ]
  store ptr %16, ptr %5, align 8, !tbaa !3
  %17 = load ptr, ptr %5, align 8, !tbaa !3
  %18 = icmp ne ptr %17, null
  br i1 %18, label %19, label %20

19:                                               ; preds = %15
  store ptr null, ptr %2, align 8
  store i32 1, ptr %6, align 4
  br label %23

20:                                               ; preds = %15
  %21 = load ptr, ptr %4, align 8, !tbaa !8
  call void @Ndr_Delete(ptr noundef %21)
  %22 = load ptr, ptr %5, align 8, !tbaa !3
  store ptr %22, ptr %2, align 8
  store i32 1, ptr %6, align 4
  br label %23

23:                                               ; preds = %20, %19
  call void @llvm.lifetime.end.p0(i64 8, ptr %5) #11
  call void @llvm.lifetime.end.p0(i64 8, ptr %4) #11
  %24 = load ptr, ptr %2, align 8
  ret ptr %24
}