; Function Attrs: nounwind uwtable
define noalias noundef ptr @Wln_ReadNdr(ptr noundef %0) local_unnamed_addr #0 {
  %2 = tail call fastcc ptr @Ndr_Read(ptr noundef %0)
  %.not = icmp eq ptr %2, null
  br i1 %.not, label %Ndr_Delete.exit, label %3

3:                                                ; preds = %1
  %4 = tail call ptr @Wln_NtkFromNdr(ptr noundef nonnull %2, i32 poison)
  %5 = icmp eq ptr %4, null
  br i1 %5, label %.critedge, label %Ndr_Delete.exit

.critedge:                                        ; preds = %3
  %6 = getelementptr inbounds nuw i8, ptr %2, i64 8
  %7 = load ptr, ptr %6, align 8, !tbaa !11
  tail call void @free(ptr noundef %7) #21
  %8 = getelementptr inbounds nuw i8, ptr %2, i64 16
  %9 = load ptr, ptr %8, align 8, !tbaa !12
  tail call void @free(ptr noundef %9) #21
  tail call void @free(ptr noundef nonnull %2) #21
  br label %Ndr_Delete.exit

Ndr_Delete.exit:                                  ; preds = %1, %.critedge, %3
  ret ptr null
}